; Function Attrs: mustprogress nofree nounwind willreturn memory(read, inaccessiblemem: none) uwtable
define hidden noundef i64 @_ZN3ue220maxStringSelfOverlapERKNS_11ue2_literalE(ptr noundef nonnull readonly align 8 captures(none) dereferenceable(64) %0) local_unnamed_addr #2 {
  %2 = getelementptr inbounds nuw i8, ptr %0, i64 32
  %3 = getelementptr inbounds nuw i8, ptr %0, i64 40
  %4 = load ptr, ptr %3, align 8
  %5 = load ptr, ptr %2, align 8
  %.not78.not.i.i = icmp eq ptr %4, %5
  br i1 %.not78.not.i.i, label %_ZNK3ue211ue2_literal10any_nocaseEv.exit.thread, label %.lr.ph.preheader.i.i

.lr.ph.preheader.i.i:                             ; preds = %1
  %6 = ptrtoint ptr %4 to i64
  %7 = ptrtoint ptr %5 to i64
  %8 = sub i64 %6, %7
  %9 = ashr exact i64 %8, 3
  %umax.i.i = tail call i64 @llvm.umax.i64(i64 %9, i64 1)
  br label %.lr.ph.i.i

.lr.ph.i.i:                                       ; preds = %.lr.ph.i.i, %.lr.ph.preheader.i.i
  %.059.i.i = phi i64 [ 0, %.lr.ph.preheader.i.i ], [ %12, %.lr.ph.i.i ]
  %10 = getelementptr inbounds nuw i64, ptr %5, i64 %.059.i.i
  %11 = load i64, ptr %10, align 8
  %.not.not.i.not.i = icmp ne i64 %11, 0
  %12 = add nuw i64 %.059.i.i, 1
  %exitcond.not.i.i = icmp eq i64 %12, %umax.i.i
  %or.cond = select i1 %.not.not.i.not.i, i1 true, i1 %exitcond.not.i.i
  br i1 %or.cond, label %_ZNK3ue211ue2_literal10any_nocaseEv.exit, label %.lr.ph.i.i, !llvm.loop !9

_ZNK3ue211ue2_literal10any_nocaseEv.exit:         ; preds = %.lr.ph.i.i
  %13 = getelementptr inbounds nuw i8, ptr %0, i64 8
  %14 = load i64, ptr %13, align 8
  %15 = load ptr, ptr %0, align 8
  %16 = getelementptr inbounds nuw i8, ptr %15, i64 %14
  %.020.i = add i64 %14, -1
  %.not21.i = icmp eq i64 %.020.i, 0
  br i1 %.not21.i, label %_ZN3ue220maxStringSelfOverlapERKNSt7__cxx1112basic_stringIcSt11char_traitsIcESaIcEEEb.exit, label %.lr.ph.i

_ZNK3ue211ue2_literal10any_nocaseEv.exit.thread:  ; preds = %1
  %17 = getelementptr inbounds nuw i8, ptr %0, i64 8
  %18 = load i64, ptr %17, align 8
  %19 = load ptr, ptr %0, align 8
  %20 = getelementptr inbounds nuw i8, ptr %19, i64 %18
  %.020.i9 = add i64 %18, -1
  %.not21.i10 = icmp eq i64 %.020.i9, 0
  br i1 %.not21.i10, label %_ZN3ue220maxStringSelfOverlapERKNSt7__cxx1112basic_stringIcSt11char_traitsIcESaIcEEEb.exit, label %_ZN3ue23cmpEPKcS1_mb.exit.i.preheader

.lr.ph.i:                                         ; preds = %_ZNK3ue211ue2_literal10any_nocaseEv.exit
  br i1 %.not.not.i.not.i, label %.lr.ph.i.preheader.us.i, label %_ZN3ue23cmpEPKcS1_mb.exit.i.preheader

_ZN3ue23cmpEPKcS1_mb.exit.i.preheader:            ; preds = %_ZNK3ue211ue2_literal10any_nocaseEv.exit.thread, %.lr.ph.i
  %21 = phi i64 [ %14, %.lr.ph.i ], [ %18, %_ZNK3ue211ue2_literal10any_nocaseEv.exit.thread ]
  %22 = phi ptr [ %15, %.lr.ph.i ], [ %19, %_ZNK3ue211ue2_literal10any_nocaseEv.exit.thread ]
  %23 = phi ptr [ %16, %.lr.ph.i ], [ %20, %_ZNK3ue211ue2_literal10any_nocaseEv.exit.thread ]
  %.020.i1215 = phi i64 [ %.020.i, %.lr.ph.i ], [ %.020.i9, %_ZNK3ue211ue2_literal10any_nocaseEv.exit.thread ]
  br label %_ZN3ue23cmpEPKcS1_mb.exit.i

.lr.ph.i.preheader.us.i:                          ; preds = %.lr.ph.i, %.critedge16.loopexit.us.i
  %.023.us.i = phi i64 [ %.0.us.i, %.critedge16.loopexit.us.i ], [ %.020.i, %.lr.ph.i ]
  %.0.in22.us.i = phi i64 [ %.023.us.i, %.critedge16.loopexit.us.i ], [ %14, %.lr.ph.i ]
  %24 = sub i64 1, %.0.in22.us.i
  %25 = getelementptr inbounds i8, ptr %16, i64 %24
  br label %.lr.ph.i.us.i

.lr.ph.i.us.i:                                    ; preds = %34, %.lr.ph.i.preheader.us.i
  %.01421.i.us.i = phi ptr [ %35, %34 ], [ %25, %.lr.ph.i.preheader.us.i ]
  %.01520.i.us.i = phi ptr [ %36, %34 ], [ %15, %.lr.ph.i.preheader.us.i ]
  %26 = load i8, ptr %.01421.i.us.i, align 1
  %27 = add i8 %26, -123
  %28 = icmp ult i8 %27, -26
  %29 = add i8 %26, -32
  %.0.i17.i.us.i = select i1 %28, i8 %26, i8 %29
  %30 = load i8, ptr %.01520.i.us.i, align 1
  %31 = add i8 %30, -123
  %32 = icmp ult i8 %31, -26
  %33 = add i8 %30, -32
  %.0.i.i.us.i = select i1 %32, i8 %30, i8 %33
  %.not.i.us.i = icmp eq i8 %.0.i17.i.us.i, %.0.i.i.us.i
  br i1 %.not.i.us.i, label %34, label %.critedge16.loopexit.us.i

34:                                               ; preds = %.lr.ph.i.us.i
  %35 = getelementptr inbounds nuw i8, ptr %.01421.i.us.i, i64 1
  %36 = getelementptr inbounds nuw i8, ptr %.01520.i.us.i, i64 1
  %.not18.i.us.i = icmp ult ptr %35, %16
  br i1 %.not18.i.us.i, label %.lr.ph.i.us.i, label %_ZN3ue220maxStringSelfOverlapERKNSt7__cxx1112basic_stringIcSt11char_traitsIcESaIcEEEb.exit, !llvm.loop !5

.critedge16.loopexit.us.i:                        ; preds = %.lr.ph.i.us.i
  %.0.us.i = add i64 %.023.us.i, -1
  %.not.us.i = icmp eq i64 %.0.us.i, 0
  br i1 %.not.us.i, label %_ZN3ue220maxStringSelfOverlapERKNSt7__cxx1112basic_stringIcSt11char_traitsIcESaIcEEEb.exit, label %.lr.ph.i.preheader.us.i, !llvm.loop !10

_ZN3ue23cmpEPKcS1_mb.exit.i:                      ; preds = %_ZN3ue23cmpEPKcS1_mb.exit.i.preheader, %.critedge16.backedge.i
  %.023.i = phi i64 [ %.0.i, %.critedge16.backedge.i ], [ %.020.i1215, %_ZN3ue23cmpEPKcS1_mb.exit.i.preheader ]
  %.0.in22.i = phi i64 [ %.023.i, %.critedge16.backedge.i ], [ %21, %_ZN3ue23cmpEPKcS1_mb.exit.i.preheader ]
  %37 = sub i64 1, %.0.in22.i
  %38 = getelementptr inbounds i8, ptr %23, i64 %37
  %bcmp.i = tail call i32 @bcmp(ptr %38, ptr %22, i64 %.023.i)
  %39 = icmp eq i32 %bcmp.i, 0
  br i1 %39, label %_ZN3ue220maxStringSelfOverlapERKNSt7__cxx1112basic_stringIcSt11char_traitsIcESaIcEEEb.exit, label %.critedge16.backedge.i

.critedge16.backedge.i:                           ; preds = %_ZN3ue23cmpEPKcS1_mb.exit.i
  %.0.i = add i64 %.023.i, -1
  %.not.i = icmp eq i64 %.0.i, 0
  br i1 %.not.i, label %_ZN3ue220maxStringSelfOverlapERKNSt7__cxx1112basic_stringIcSt11char_traitsIcESaIcEEEb.exit, label %_ZN3ue23cmpEPKcS1_mb.exit.i, !llvm.loop !10

_ZN3ue220maxStringSelfOverlapERKNSt7__cxx1112basic_stringIcSt11char_traitsIcESaIcEEEb.exit: ; preds = %.critedge16.loopexit.us.i, %34, %_ZN3ue23cmpEPKcS1_mb.exit.i, %.critedge16.backedge.i, %_ZNK3ue211ue2_literal10any_nocaseEv.exit.thread, %_ZNK3ue211ue2_literal10any_nocaseEv.exit
  %.019.i = phi i64 [ 0, %_ZNK3ue211ue2_literal10any_nocaseEv.exit ], [ 0, %_ZNK3ue211ue2_literal10any_nocaseEv.exit.thread ], [ 0, %.critedge16.backedge.i ], [ %.023.i, %_ZN3ue23cmpEPKcS1_mb.exit.i ], [ %.023.us.i, %34 ], [ 0, %.critedge16.loopexit.us.i ]
  ret i64 %.019.i
}